; Function Attrs: nounwind uwtable
define internal void @__cxx_global_array_dtor.72(ptr readnone captures(none) %0) #4 section ".text.startup" {
  br label %2

2:                                                ; preds = %2, %1
  %3 = phi ptr [ getelementptr inbounds nuw (i8, ptr @_ZN12_GLOBAL__N_122cmDocumentationOptionsE, i64 2232), %1 ], [ %4, %2 ]
  %4 = getelementptr inbounds i8, ptr %3, i64 -72
  %5 = getelementptr inbounds i8, ptr %3, i64 -40
  tail call void @_ZNSt7__cxx1112basic_stringIcSt11char_traitsIcESaIcEED1Ev(ptr noundef nonnull align 8 dereferenceable(32) %5) #27
  tail call void @_ZNSt7__cxx1112basic_stringIcSt11char_traitsIcESaIcEED1Ev(ptr noundef nonnull align 8 dereferenceable(65) %4) #27
  %6 = icmp eq ptr %4, @_ZN12_GLOBAL__N_122cmDocumentationOptionsE
  br i1 %6, label %7, label %2

7:                                                ; preds = %2
  ret void
}